target datalayout = "e-m:e-p270:32:32-p271:32:32-p272:64:64-i64:64-i128:128-f80:128-n8:16:32:64-S128"
target triple = "x86_64-pc-linux-gnu"

%struct.png_XYZ = type { i32, i32, i32, i32, i32, i32, i32, i32, i32 }
%struct.png_xy = type { i32, i32, i32, i32, i32, i32, i32, i32 }
%struct.png_color_8_struct = type { i8, i8, i8, i8, i8 }
%struct.png_color_16_struct = type { i8, i16, i16, i16, i16 }
%struct.png_colorspace = type { i32, %struct.png_xy, %struct.png_XYZ, i16, i16 }
%struct.png_info_def = type { i32, i32, i32, i64, ptr, i16, i16, i8, i8, i8, i8, i8, i8, i8, i8, [8 x i8], %struct.png_colorspace, ptr, ptr, i32, i32, i32, ptr, %struct.png_time_struct, %struct.png_color_8_struct, ptr, %struct.png_color_16_struct, %struct.png_color_16_struct, i32, i32, i8, i32, i32, i8, i32, ptr, ptr, ptr, ptr, i32, i32, ptr, ptr, i8, i8, i32, ptr, i32, ptr, i32, i8, ptr, ptr, ptr }
%struct.png_time_struct = type { i16, i8, i8, i8, i8, i8 }

@.str.5 = private unnamed_addr constant [42 x i8] c"Unknown freer parameter in png_data_freer\00", align 1

; Function Attrs: nounwind uwtable
define void @png_data_freer(ptr noalias noundef %0, ptr noalias noundef %1, i32 noundef %2, i32 noundef %3) #0 {
  %5 = alloca ptr, align 8
  %6 = alloca ptr, align 8
  %7 = alloca i32, align 4
  %8 = alloca i32, align 4
  store ptr %0, ptr %5, align 8
  store ptr %1, ptr %6, align 8
  store i32 %2, ptr %7, align 4
  store i32 %3, ptr %8, align 4
  %9 = load ptr, ptr %5, align 8
  %10 = icmp eq ptr %9, null
  br i1 %10, label %14, label %11

11:                                               ; preds = %4
  %12 = load ptr, ptr %6, align 8
  %13 = icmp eq ptr %12, null
  br i1 %13, label %14, label %15

14:                                               ; preds = %11, %4
  br label %37

15:                                               ; preds = %11
  %16 = load i32, ptr %7, align 4
  %17 = icmp eq i32 %16, 1
  br i1 %17, label %18, label %24

18:                                               ; preds = %15
  %19 = load i32, ptr %8, align 4
  %20 = load ptr, ptr %6, align 8
  %21 = getelementptr inbounds %struct.png_info_def, ptr %20, i32 0, i32 45
  %22 = load i32, ptr %21, align 4
  %23 = or i32 %22, %19
  store i32 %23, ptr %21, align 4
  br label %37

24:                                               ; preds = %15
  %25 = load i32, ptr %7, align 4
  %26 = icmp eq i32 %25, 2
  br i1 %26, label %27, label %34

27:                                               ; preds = %24
  %28 = load i32, ptr %8, align 4
  %29 = xor i32 %28, -1
  %30 = load ptr, ptr %6, align 8
  %31 = getelementptr inbounds %struct.png_info_def, ptr %30, i32 0, i32 45
  %32 = load i32, ptr %31, align 4
  %33 = and i32 %32, %29
  store i32 %33, ptr %31, align 4
  br label %36

34:                                               ; preds = %24
  %35 = load ptr, ptr %5, align 8
  call void @png_error(ptr noundef %35, ptr noundef @.str.5) #10
  unreachable

36:                                               ; preds = %27
  br label %37

37:                                               ; preds = %36, %18, %14
  ret void
}