; Function Attrs: nounwind uwtable
define void @png_data_freer(ptr noalias noundef %0, ptr noalias noundef %1, i32 noundef %2, i32 noundef %3) local_unnamed_addr #0 {
  %5 = icmp eq ptr %0, null
  %6 = icmp eq ptr %1, null
  %or.cond = or i1 %5, %6
  br i1 %or.cond, label %18, label %7

7:                                                ; preds = %4
  switch i32 %2, label %17 [
    i32 1, label %8
    i32 2, label %12
  ]

8:                                                ; preds = %7
  %9 = getelementptr inbounds i8, ptr %1, i64 300
  %10 = load i32, ptr %9, align 4
  %11 = or i32 %10, %3
  store i32 %11, ptr %9, align 4
  br label %18

12:                                               ; preds = %7
  %13 = xor i32 %3, -1
  %14 = getelementptr inbounds i8, ptr %1, i64 300
  %15 = load i32, ptr %14, align 4
  %16 = and i32 %15, %13
  store i32 %16, ptr %14, align 4
  br label %18

17:                                               ; preds = %7
  tail call void @png_error(ptr noundef nonnull %0, ptr noundef nonnull @.str.5) #27
  unreachable

18:                                               ; preds = %4, %12, %8
  ret void
}